target datalayout = "e-m:e-p270:32:32-p271:32:32-p272:64:64-i64:64-i128:128-f80:128-n8:16:32:64-S128"
target triple = "x86_64-pc-linux-gnu"

%struct.Extra_SymmInfo_t_ = type { i32, i32, i32, i32, ptr, ptr }

@.str = private unnamed_addr constant [2 x i8] c"\0A\00", align 1
@.str.1 = private unnamed_addr constant [2 x i8] c" \00", align 1
@.str.2 = private unnamed_addr constant [2 x i8] c"1\00", align 1
@.str.3 = private unnamed_addr constant [2 x i8] c".\00", align 1

; Function Attrs: nounwind uwtable
define void @Extra_SymmPairsPrint(ptr noundef %0) #0 {
  %2 = alloca ptr, align 8
  %3 = alloca i32, align 4
  %4 = alloca i32, align 4
  store ptr %0, ptr %2, align 8, !tbaa !10
  call void @llvm.lifetime.start.p0(i64 4, ptr %3) #6
  call void @llvm.lifetime.start.p0(i64 4, ptr %4) #6
  %5 = call i32 (ptr, ...) @printf(ptr noundef @.str)
  store i32 0, ptr %3, align 4, !tbaa !31
  br label %6

6:                                                ; preds = %54, %1
  %7 = load i32, ptr %3, align 4, !tbaa !31
  %8 = load ptr, ptr %2, align 8, !tbaa !10
  %9 = getelementptr inbounds nuw %struct.Extra_SymmInfo_t_, ptr %8, i32 0, i32 0
  %10 = load i32, ptr %9, align 8, !tbaa !58
  %11 = icmp slt i32 %7, %10
  br i1 %11, label %12, label %57

12:                                               ; preds = %6
  store i32 0, ptr %4, align 4, !tbaa !31
  br label %13

13:                                               ; preds = %19, %12
  %14 = load i32, ptr %4, align 4, !tbaa !31
  %15 = load i32, ptr %3, align 4, !tbaa !31
  %16 = icmp sle i32 %14, %15
  br i1 %16, label %17, label %22

17:                                               ; preds = %13
  %18 = call i32 (ptr, ...) @printf(ptr noundef @.str.1)
  br label %19

19:                                               ; preds = %17
  %20 = load i32, ptr %4, align 4, !tbaa !31
  %21 = add nsw i32 %20, 1
  store i32 %21, ptr %4, align 4, !tbaa !31
  br label %13, !llvm.loop !60

22:                                               ; preds = %13
  %23 = load i32, ptr %3, align 4, !tbaa !31
  %24 = add nsw i32 %23, 1
  store i32 %24, ptr %4, align 4, !tbaa !31
  br label %25

25:                                               ; preds = %49, %22
  %26 = load i32, ptr %4, align 4, !tbaa !31
  %27 = load ptr, ptr %2, align 8, !tbaa !10
  %28 = getelementptr inbounds nuw %struct.Extra_SymmInfo_t_, ptr %27, i32 0, i32 0
  %29 = load i32, ptr %28, align 8, !tbaa !58
  %30 = icmp slt i32 %26, %29
  br i1 %30, label %31, label %52

31:                                               ; preds = %25
  %32 = load ptr, ptr %2, align 8, !tbaa !10
  %33 = getelementptr inbounds nuw %struct.Extra_SymmInfo_t_, ptr %32, i32 0, i32 5
  %34 = load ptr, ptr %33, align 8, !tbaa !44
  %35 = load i32, ptr %3, align 4, !tbaa !31
  %36 = sext i32 %35 to i64
  %37 = getelementptr inbounds ptr, ptr %34, i64 %36
  %38 = load ptr, ptr %37, align 8, !tbaa !45
  %39 = load i32, ptr %4, align 4, !tbaa !31
  %40 = sext i32 %39 to i64
  %41 = getelementptr inbounds i8, ptr %38, i64 %40
  %42 = load i8, ptr %41, align 1, !tbaa !41
  %43 = icmp ne i8 %42, 0
  br i1 %43, label %44, label %46

44:                                               ; preds = %31
  %45 = call i32 (ptr, ...) @printf(ptr noundef @.str.2)
  br label %48

46:                                               ; preds = %31
  %47 = call i32 (ptr, ...) @printf(ptr noundef @.str.3)
  br label %48

48:                                               ; preds = %46, %44
  br label %49

49:                                               ; preds = %48
  %50 = load i32, ptr %4, align 4, !tbaa !31
  %51 = add nsw i32 %50, 1
  store i32 %51, ptr %4, align 4, !tbaa !31
  br label %25, !llvm.loop !61

52:                                               ; preds = %25
  %53 = call i32 (ptr, ...) @printf(ptr noundef @.str)
  br label %54

54:                                               ; preds = %52
  %55 = load i32, ptr %3, align 4, !tbaa !31
  %56 = add nsw i32 %55, 1
  store i32 %56, ptr %3, align 4, !tbaa !31
  br label %6, !llvm.loop !62

57:                                               ; preds = %6
  call void @llvm.lifetime.end.p0(i64 4, ptr %4) #6
  call void @llvm.lifetime.end.p0(i64 4, ptr %3) #6
  ret void
}