; Function Attrs: nofree nounwind uwtable
define void @Extra_SymmPairsPrint(ptr noundef readonly captures(none) %0) local_unnamed_addr #6 {
  %putchar = tail call i32 @putchar(i32 10)
  %2 = load i32, ptr %0, align 8, !tbaa !26
  %3 = icmp sgt i32 %2, 0
  br i1 %3, label %.preheader.lr.ph, label %._crit_edge21

.preheader.lr.ph:                                 ; preds = %1
  %4 = getelementptr inbounds nuw i8, ptr %0, i64 24
  br label %.preheader

.preheader:                                       ; preds = %.preheader.lr.ph, %._crit_edge
  %indvars.iv27 = phi i64 [ 0, %.preheader.lr.ph ], [ %indvars.iv.next28, %._crit_edge ]
  %indvars.iv22 = phi i64 [ 1, %.preheader.lr.ph ], [ %indvars.iv.next23, %._crit_edge ]
  %indvars29 = trunc i64 %indvars.iv22 to i32
  br label %5

5:                                                ; preds = %.preheader, %5
  %.018 = phi i32 [ 0, %.preheader ], [ %6, %5 ]
  %putchar17 = tail call i32 @putchar(i32 32)
  %6 = add nuw nsw i32 %.018, 1
  %exitcond.not = icmp eq i32 %6, %indvars29
  br i1 %exitcond.not, label %7, label %5, !llvm.loop !54

7:                                                ; preds = %5
  %indvars.iv.next28 = add nuw nsw i64 %indvars.iv27, 1
  %8 = load i32, ptr %0, align 8, !tbaa !26
  %9 = sext i32 %8 to i64
  %10 = icmp slt i64 %indvars.iv.next28, %9
  br i1 %10, label %.lr.ph, label %._crit_edge

.lr.ph:                                           ; preds = %7, %.lr.ph
  %indvars.iv24 = phi i64 [ %indvars.iv.next25, %.lr.ph ], [ %indvars.iv22, %7 ]
  %11 = load ptr, ptr %4, align 8, !tbaa !30
  %12 = getelementptr inbounds nuw ptr, ptr %11, i64 %indvars.iv27
  %13 = load ptr, ptr %12, align 8, !tbaa !31
  %14 = getelementptr inbounds nuw i8, ptr %13, i64 %indvars.iv24
  %15 = load i8, ptr %14, align 1, !tbaa !38
  %.not14 = icmp eq i8 %15, 0
  %. = select i1 %.not14, i32 46, i32 49
  %putchar16 = tail call i32 @putchar(i32 %.)
  %indvars.iv.next25 = add nuw nsw i64 %indvars.iv24, 1
  %16 = load i32, ptr %0, align 8, !tbaa !26
  %17 = trunc nuw i64 %indvars.iv.next25 to i32
  %18 = icmp sgt i32 %16, %17
  br i1 %18, label %.lr.ph, label %._crit_edge, !llvm.loop !55

._crit_edge:                                      ; preds = %.lr.ph, %7
  %putchar13 = tail call i32 @putchar(i32 10)
  %19 = load i32, ptr %0, align 8, !tbaa !26
  %20 = sext i32 %19 to i64
  %21 = icmp slt i64 %indvars.iv.next28, %20
  %indvars.iv.next23 = add nuw nsw i64 %indvars.iv22, 1
  br i1 %21, label %.preheader, label %._crit_edge21, !llvm.loop !56

._crit_edge21:                                    ; preds = %._crit_edge, %1
  ret void
}